target datalayout = "e-m:e-p270:32:32-p271:32:32-p272:64:64-i64:64-i128:128-f80:128-n8:16:32:64-S128"
target triple = "x86_64-pc-linux-gnu"

%"struct.vcpkg::StringView" = type { ptr, i64 }
%"struct.vcpkg::LocalizedString" = type { %"class.std::__cxx11::basic_string" }
%"class.std::__cxx11::basic_string" = type { %"struct.std::__cxx11::basic_string<char>::_Alloc_hider", i64, %union.anon }
%"struct.std::__cxx11::basic_string<char>::_Alloc_hider" = type { ptr }
%union.anon = type { i64, [8 x i8] }
%"struct.vcpkg::Path" = type { %"class.std::__cxx11::basic_string" }
%"struct.vcpkg::Command" = type { %"class.std::__cxx11::basic_string" }
%"struct.vcpkg::ExpectedT.154" = type <{ %union.anon.155, i8, [7 x i8] }>
%union.anon.155 = type { %"struct.vcpkg::LocalizedString" }
%"struct.(anonymous namespace)::IObjectStorageTool" = type { ptr }
%"struct.vcpkg::ExpectedT.450" = type <{ %union.anon.451, i8, [7 x i8] }>
%union.anon.451 = type { %"struct.vcpkg::ExpectedHolder.452" }
%"struct.vcpkg::ExpectedHolder.452" = type { %"struct.vcpkg::ExitCodeAndOutput" }
%"struct.vcpkg::ExitCodeAndOutput" = type { i32, %"class.std::__cxx11::basic_string" }
%"struct.(anonymous namespace)::AwsStorageTool" = type <{ %"struct.(anonymous namespace)::IObjectStorageTool", %"struct.vcpkg::Path", i8, [7 x i8] }>

@.str.105 = private unnamed_addr constant [3 x i8] c"cp\00", align 1
@_ZN5vcpkg5ToolsL6AWSCLIE = internal constant { ptr, i64 } { ptr @.str.65, i64 3 }, align 8
@.str.107 = private unnamed_addr constant [3 x i8] c"s3\00", align 1
@.str.109 = private unnamed_addr constant [18 x i8] c"--no-sign-request\00", align 1

; Function Attrs: mustprogress nounwind uwtable
define linkonce_odr dso_local void @_ZN5vcpkg17ExitCodeAndOutputD2Ev(ptr noundef nonnull align 8 dereferenceable(40) %0) unnamed_addr #1 comdat align 2 {
  %2 = alloca ptr, align 8
  store ptr %0, ptr %2, align 8
  %3 = load ptr, ptr %2, align 8
  %4 = getelementptr inbounds %"struct.vcpkg::ExitCodeAndOutput", ptr %3, i32 0, i32 1
  call void @_ZNSt7__cxx1112basic_stringIcSt11char_traitsIcESaIcEED1Ev(ptr noundef nonnull align 8 dereferenceable(32) %4) #8
  ret void
}

; Function Attrs: mustprogress nounwind uwtable
define linkonce_odr dso_local void @_ZN5vcpkg14ExpectedHolderINS_17ExitCodeAndOutputEED2Ev(ptr noundef nonnull align 8 dereferenceable(40) %0) unnamed_addr #1 comdat align 2 {
  %2 = alloca ptr, align 8
  store ptr %0, ptr %2, align 8
  %3 = load ptr, ptr %2, align 8
  %4 = getelementptr inbounds %"struct.vcpkg::ExpectedHolder.452", ptr %3, i32 0, i32 0
  call void @_ZN5vcpkg17ExitCodeAndOutputD2Ev(ptr noundef nonnull align 8 dereferenceable(40) %4) #8
  ret void
}

; Function Attrs: mustprogress nounwind uwtable
define linkonce_odr dso_local void @_ZN5vcpkg15LocalizedStringD2Ev(ptr noundef nonnull align 8 dereferenceable(32) %0) unnamed_addr #1 comdat align 2 {
  %2 = alloca ptr, align 8
  store ptr %0, ptr %2, align 8
  %3 = load ptr, ptr %2, align 8
  %4 = getelementptr inbounds %"struct.vcpkg::LocalizedString", ptr %3, i32 0, i32 0
  call void @_ZNSt7__cxx1112basic_stringIcSt11char_traitsIcESaIcEED1Ev(ptr noundef nonnull align 8 dereferenceable(32) %4) #8
  ret void
}

; Function Attrs: mustprogress nounwind uwtable
define linkonce_odr dso_local void @_ZN5vcpkg9ExpectedTINS_17ExitCodeAndOutputENS_15LocalizedStringEED2Ev(ptr noundef nonnull align 8 dereferenceable(41) %0) unnamed_addr #1 comdat align 2 {
  %2 = alloca ptr, align 8
  store ptr %0, ptr %2, align 8
  %3 = load ptr, ptr %2, align 8
  %4 = getelementptr inbounds %"struct.vcpkg::ExpectedT.450", ptr %3, i32 0, i32 1
  %5 = load i8, ptr %4, align 8
  %6 = trunc i8 %5 to i1
  br i1 %6, label %7, label %9

7:                                                ; preds = %1
  %8 = getelementptr inbounds %"struct.vcpkg::ExpectedT.450", ptr %3, i32 0, i32 0
  call void @_ZN5vcpkg15LocalizedStringD2Ev(ptr noundef nonnull align 8 dereferenceable(32) %8) #8
  br label %11

9:                                                ; preds = %1
  %10 = getelementptr inbounds %"struct.vcpkg::ExpectedT.450", ptr %3, i32 0, i32 0
  call void @_ZN5vcpkg14ExpectedHolderINS_17ExitCodeAndOutputEED2Ev(ptr noundef nonnull align 8 dereferenceable(40) %10) #8
  br label %11

11:                                               ; preds = %9, %7
  ret void
}

; Function Attrs: mustprogress nounwind uwtable
define linkonce_odr dso_local void @_ZN5vcpkg7CommandD2Ev(ptr noundef nonnull align 8 dereferenceable(32) %0) unnamed_addr #1 comdat align 2 {
  %2 = alloca ptr, align 8
  store ptr %0, ptr %2, align 8
  %3 = load ptr, ptr %2, align 8
  %4 = getelementptr inbounds %"struct.vcpkg::Command", ptr %3, i32 0, i32 0
  call void @_ZNSt7__cxx1112basic_stringIcSt11char_traitsIcESaIcEED1Ev(ptr noundef nonnull align 8 dereferenceable(32) %4) #8
  ret void
}

; Function Attrs: mustprogress nounwind uwtable
define linkonce_odr dso_local void @_ZN5vcpkg7CommandC2EOS0_(ptr noundef nonnull align 8 dereferenceable(32) %0, ptr noundef nonnull align 8 dereferenceable(32) %1) unnamed_addr #1 comdat align 2 {
  %3 = alloca ptr, align 8
  %4 = alloca ptr, align 8
  store ptr %0, ptr %3, align 8
  store ptr %1, ptr %4, align 8
  %5 = load ptr, ptr %3, align 8
  %6 = getelementptr inbounds %"struct.vcpkg::Command", ptr %5, i32 0, i32 0
  %7 = load ptr, ptr %4, align 8
  %8 = getelementptr inbounds %"struct.vcpkg::Command", ptr %7, i32 0, i32 0
  call void @_ZNSt7__cxx1112basic_stringIcSt11char_traitsIcESaIcEEC1EOS4_(ptr noundef nonnull align 8 dereferenceable(32) %6, ptr noundef nonnull align 8 dereferenceable(32) %8) #8
  ret void
}

; Function Attrs: mustprogress uwtable
define linkonce_odr dso_local noundef nonnull align 8 dereferenceable(32) ptr @_ZNO5vcpkg7Command10string_argENS_10StringViewE(ptr noundef nonnull align 8 dereferenceable(32) %0, ptr %1, i64 %2) #0 comdat align 2 {
  %4 = alloca %"struct.vcpkg::StringView", align 8
  %5 = alloca ptr, align 8
  %6 = alloca %"struct.vcpkg::StringView", align 8
  %7 = getelementptr inbounds { ptr, i64 }, ptr %4, i32 0, i32 0
  store ptr %1, ptr %7, align 8
  %8 = getelementptr inbounds { ptr, i64 }, ptr %4, i32 0, i32 1
  store i64 %2, ptr %8, align 8
  store ptr %0, ptr %5, align 8
  %9 = load ptr, ptr %5, align 8
  call void @llvm.memcpy.p0.p0.i64(ptr align 8 %6, ptr align 8 %4, i64 16, i1 false)
  %10 = getelementptr inbounds { ptr, i64 }, ptr %6, i32 0, i32 0
  %11 = load ptr, ptr %10, align 8
  %12 = getelementptr inbounds { ptr, i64 }, ptr %6, i32 0, i32 1
  %13 = load i64, ptr %12, align 8
  %14 = call noundef nonnull align 8 dereferenceable(32) ptr @_ZNR5vcpkg7Command10string_argENS_10StringViewE(ptr noundef nonnull align 8 dereferenceable(32) %9, ptr %11, i64 %13)
  ret ptr %14
}

; Function Attrs: mustprogress nounwind uwtable
define linkonce_odr dso_local void @_ZN5vcpkg10StringViewC2EPKc(ptr noundef nonnull align 8 dereferenceable(16) %0, ptr noundef %1) unnamed_addr #1 comdat align 2 {
  %3 = alloca ptr, align 8
  %4 = alloca ptr, align 8
  store ptr %0, ptr %3, align 8
  store ptr %1, ptr %4, align 8
  %5 = load ptr, ptr %3, align 8
  %6 = getelementptr inbounds %"struct.vcpkg::StringView", ptr %5, i32 0, i32 0
  %7 = load ptr, ptr %4, align 8
  store ptr %7, ptr %6, align 8
  %8 = getelementptr inbounds %"struct.vcpkg::StringView", ptr %5, i32 0, i32 1
  %9 = load ptr, ptr %4, align 8
  %10 = call i64 @strlen(ptr noundef %9) #19
  store i64 %10, ptr %8, align 8
  ret void
}

; Function Attrs: mustprogress uwtable
define linkonce_odr dso_local void @_ZN5vcpkg7CommandC2ENS_10StringViewE(ptr noundef nonnull align 8 dereferenceable(32) %0, ptr %1, i64 %2) unnamed_addr #0 comdat align 2 personality ptr @__gxx_personality_v0 {
  %4 = alloca %"struct.vcpkg::StringView", align 8
  %5 = alloca ptr, align 8
  %6 = alloca %"struct.vcpkg::StringView", align 8
  %7 = alloca ptr, align 8
  %8 = alloca i32, align 4
  %9 = getelementptr inbounds { ptr, i64 }, ptr %4, i32 0, i32 0
  store ptr %1, ptr %9, align 8
  %10 = getelementptr inbounds { ptr, i64 }, ptr %4, i32 0, i32 1
  store i64 %2, ptr %10, align 8
  store ptr %0, ptr %5, align 8
  %11 = load ptr, ptr %5, align 8
  %12 = getelementptr inbounds %"struct.vcpkg::Command", ptr %11, i32 0, i32 0
  call void @_ZNSt7__cxx1112basic_stringIcSt11char_traitsIcESaIcEEC1Ev(ptr noundef nonnull align 8 dereferenceable(32) %12) #8
  call void @llvm.memcpy.p0.p0.i64(ptr align 8 %6, ptr align 8 %4, i64 16, i1 false)
  %13 = getelementptr inbounds { ptr, i64 }, ptr %6, i32 0, i32 0
  %14 = load ptr, ptr %13, align 8
  %15 = getelementptr inbounds { ptr, i64 }, ptr %6, i32 0, i32 1
  %16 = load i64, ptr %15, align 8
  %17 = invoke noundef nonnull align 8 dereferenceable(32) ptr @_ZNR5vcpkg7Command10string_argENS_10StringViewE(ptr noundef nonnull align 8 dereferenceable(32) %11, ptr %14, i64 %16)
          to label %18 unwind label %19

18:                                               ; preds = %3
  ret void

19:                                               ; preds = %3
  %20 = landingpad { ptr, i32 }
          cleanup
  %21 = extractvalue { ptr, i32 } %20, 0
  store ptr %21, ptr %7, align 8
  %22 = extractvalue { ptr, i32 } %20, 1
  store i32 %22, ptr %8, align 4
  call void @_ZNSt7__cxx1112basic_stringIcSt11char_traitsIcESaIcEED1Ev(ptr noundef nonnull align 8 dereferenceable(32) %12) #8
  br label %23

23:                                               ; preds = %19
  %24 = load ptr, ptr %7, align 8
  %25 = load i32, ptr %8, align 4
  %26 = insertvalue { ptr, i32 } poison, ptr %24, 0
  %27 = insertvalue { ptr, i32 } %26, i32 %25, 1
  resume { ptr, i32 } %27
}

; Function Attrs: mustprogress uwtable
define internal void @_ZNK12_GLOBAL__N_114AwsStorageTool11upload_fileEN5vcpkg10StringViewERKNS1_4PathE(ptr dead_on_unwind noalias writable sret(%"struct.vcpkg::ExpectedT.154") align 8 %0, ptr noundef nonnull align 8 dereferenceable(41) %1, ptr %2, i64 %3, ptr noundef nonnull align 8 dereferenceable(32) %4) unnamed_addr #0 align 2 personality ptr @__gxx_personality_v0 {
  %6 = alloca ptr, align 8
  %7 = alloca %"struct.vcpkg::StringView", align 8
  %8 = alloca ptr, align 8
  %9 = alloca ptr, align 8
  %10 = alloca %"struct.vcpkg::Command", align 8
  %11 = alloca %"struct.vcpkg::Command", align 8
  %12 = alloca %"struct.vcpkg::StringView", align 8
  %13 = alloca %"struct.vcpkg::StringView", align 8
  %14 = alloca ptr, align 8
  %15 = alloca i32, align 4
  %16 = alloca %"struct.vcpkg::StringView", align 8
  %17 = alloca %"struct.vcpkg::StringView", align 8
  %18 = alloca %"struct.vcpkg::StringView", align 8
  %19 = alloca %"struct.vcpkg::StringView", align 8
  %20 = alloca %"struct.vcpkg::ExpectedT.450", align 8
  %21 = alloca %"struct.vcpkg::StringView", align 8
  store ptr %0, ptr %6, align 8
  %22 = getelementptr inbounds { ptr, i64 }, ptr %7, i32 0, i32 0
  store ptr %2, ptr %22, align 8
  %23 = getelementptr inbounds { ptr, i64 }, ptr %7, i32 0, i32 1
  store i64 %3, ptr %23, align 8
  store ptr %1, ptr %8, align 8
  store ptr %4, ptr %9, align 8
  %24 = load ptr, ptr %8, align 8
  %25 = getelementptr inbounds %"struct.(anonymous namespace)::AwsStorageTool", ptr %24, i32 0, i32 1
  %26 = call { ptr, i64 } @_ZNK5vcpkg4PathcvNS_10StringViewEEv(ptr noundef nonnull align 8 dereferenceable(32) %25) #8
  %27 = getelementptr inbounds { ptr, i64 }, ptr %12, i32 0, i32 0
  %28 = extractvalue { ptr, i64 } %26, 0
  store ptr %28, ptr %27, align 8
  %29 = getelementptr inbounds { ptr, i64 }, ptr %12, i32 0, i32 1
  %30 = extractvalue { ptr, i64 } %26, 1
  store i64 %30, ptr %29, align 8
  %31 = getelementptr inbounds { ptr, i64 }, ptr %12, i32 0, i32 0
  %32 = load ptr, ptr %31, align 8
  %33 = getelementptr inbounds { ptr, i64 }, ptr %12, i32 0, i32 1
  %34 = load i64, ptr %33, align 8
  call void @_ZN5vcpkg7CommandC2ENS_10StringViewE(ptr noundef nonnull align 8 dereferenceable(32) %11, ptr %32, i64 %34)
  call void @_ZN5vcpkg10StringViewC2EPKc(ptr noundef nonnull align 8 dereferenceable(16) %13, ptr noundef @.str.107) #8
  %35 = getelementptr inbounds { ptr, i64 }, ptr %13, i32 0, i32 0
  %36 = load ptr, ptr %35, align 8
  %37 = getelementptr inbounds { ptr, i64 }, ptr %13, i32 0, i32 1
  %38 = load i64, ptr %37, align 8
  %39 = invoke noundef nonnull align 8 dereferenceable(32) ptr @_ZNO5vcpkg7Command10string_argENS_10StringViewE(ptr noundef nonnull align 8 dereferenceable(32) %11, ptr %36, i64 %38)
          to label %40 unwind label %75

40:                                               ; preds = %5
  call void @_ZN5vcpkg10StringViewC2EPKc(ptr noundef nonnull align 8 dereferenceable(16) %16, ptr noundef @.str.105) #8
  %41 = getelementptr inbounds { ptr, i64 }, ptr %16, i32 0, i32 0
  %42 = load ptr, ptr %41, align 8
  %43 = getelementptr inbounds { ptr, i64 }, ptr %16, i32 0, i32 1
  %44 = load i64, ptr %43, align 8
  %45 = invoke noundef nonnull align 8 dereferenceable(32) ptr @_ZNO5vcpkg7Command10string_argENS_10StringViewE(ptr noundef nonnull align 8 dereferenceable(32) %39, ptr %42, i64 %44)
          to label %46 unwind label %75

46:                                               ; preds = %40
  %47 = load ptr, ptr %9, align 8
  %48 = call { ptr, i64 } @_ZNK5vcpkg4PathcvNS_10StringViewEEv(ptr noundef nonnull align 8 dereferenceable(32) %47) #8
  %49 = getelementptr inbounds { ptr, i64 }, ptr %17, i32 0, i32 0
  %50 = extractvalue { ptr, i64 } %48, 0
  store ptr %50, ptr %49, align 8
  %51 = getelementptr inbounds { ptr, i64 }, ptr %17, i32 0, i32 1
  %52 = extractvalue { ptr, i64 } %48, 1
  store i64 %52, ptr %51, align 8
  %53 = getelementptr inbounds { ptr, i64 }, ptr %17, i32 0, i32 0
  %54 = load ptr, ptr %53, align 8
  %55 = getelementptr inbounds { ptr, i64 }, ptr %17, i32 0, i32 1
  %56 = load i64, ptr %55, align 8
  %57 = invoke noundef nonnull align 8 dereferenceable(32) ptr @_ZNO5vcpkg7Command10string_argENS_10StringViewE(ptr noundef nonnull align 8 dereferenceable(32) %45, ptr %54, i64 %56)
          to label %58 unwind label %75

58:                                               ; preds = %46
  call void @llvm.memcpy.p0.p0.i64(ptr align 8 %18, ptr align 8 %7, i64 16, i1 false)
  %59 = getelementptr inbounds { ptr, i64 }, ptr %18, i32 0, i32 0
  %60 = load ptr, ptr %59, align 8
  %61 = getelementptr inbounds { ptr, i64 }, ptr %18, i32 0, i32 1
  %62 = load i64, ptr %61, align 8
  %63 = invoke noundef nonnull align 8 dereferenceable(32) ptr @_ZNO5vcpkg7Command10string_argENS_10StringViewE(ptr noundef nonnull align 8 dereferenceable(32) %57, ptr %60, i64 %62)
          to label %64 unwind label %75

64:                                               ; preds = %58
  call void @_ZN5vcpkg7CommandC2EOS0_(ptr noundef nonnull align 8 dereferenceable(32) %10, ptr noundef nonnull align 8 dereferenceable(32) %63) #8
  call void @_ZN5vcpkg7CommandD2Ev(ptr noundef nonnull align 8 dereferenceable(32) %11) #8
  %65 = getelementptr inbounds %"struct.(anonymous namespace)::AwsStorageTool", ptr %24, i32 0, i32 2
  %66 = load i8, ptr %65, align 8
  %67 = trunc i8 %66 to i1
  br i1 %67, label %68, label %83

68:                                               ; preds = %64
  call void @_ZN5vcpkg10StringViewC2EPKc(ptr noundef nonnull align 8 dereferenceable(16) %19, ptr noundef @.str.109) #8
  %69 = getelementptr inbounds { ptr, i64 }, ptr %19, i32 0, i32 0
  %70 = load ptr, ptr %69, align 8
  %71 = getelementptr inbounds { ptr, i64 }, ptr %19, i32 0, i32 1
  %72 = load i64, ptr %71, align 8
  %73 = invoke noundef nonnull align 8 dereferenceable(32) ptr @_ZNR5vcpkg7Command10string_argENS_10StringViewE(ptr noundef nonnull align 8 dereferenceable(32) %10, ptr %70, i64 %72)
          to label %74 unwind label %79

74:                                               ; preds = %68
  br label %83

75:                                               ; preds = %58, %46, %40, %5
  %76 = landingpad { ptr, i32 }
          cleanup
  %77 = extractvalue { ptr, i32 } %76, 0
  store ptr %77, ptr %14, align 8
  %78 = extractvalue { ptr, i32 } %76, 1
  store i32 %78, ptr %15, align 4
  call void @_ZN5vcpkg7CommandD2Ev(ptr noundef nonnull align 8 dereferenceable(32) %11) #8
  br label %95

79:                                               ; preds = %83, %68
  %80 = landingpad { ptr, i32 }
          cleanup
  %81 = extractvalue { ptr, i32 } %80, 0
  store ptr %81, ptr %14, align 8
  %82 = extractvalue { ptr, i32 } %80, 1
  store i32 %82, ptr %15, align 4
  br label %94

83:                                               ; preds = %74, %64
  invoke void @_ZN5vcpkg30cmd_execute_and_capture_outputERKNS_7CommandE(ptr dead_on_unwind writable sret(%"struct.vcpkg::ExpectedT.450") align 8 %20, ptr noundef nonnull align 8 dereferenceable(32) %10)
          to label %84 unwind label %79

84:                                               ; preds = %83
  call void @llvm.memcpy.p0.p0.i64(ptr align 8 %21, ptr align 8 @_ZN5vcpkg5ToolsL6AWSCLIE, i64 16, i1 false)
  %85 = getelementptr inbounds { ptr, i64 }, ptr %21, i32 0, i32 0
  %86 = load ptr, ptr %85, align 8
  %87 = getelementptr inbounds { ptr, i64 }, ptr %21, i32 0, i32 1
  %88 = load i64, ptr %87, align 8
  invoke void @_ZN5vcpkg7flattenERKNS_9ExpectedTINS_17ExitCodeAndOutputENS_15LocalizedStringEEENS_10StringViewE(ptr dead_on_unwind writable sret(%"struct.vcpkg::ExpectedT.154") align 8 %0, ptr noundef nonnull align 8 dereferenceable(41) %20, ptr %86, i64 %88)
          to label %89 unwind label %90

89:                                               ; preds = %84
  call void @_ZN5vcpkg9ExpectedTINS_17ExitCodeAndOutputENS_15LocalizedStringEED2Ev(ptr noundef nonnull align 8 dereferenceable(41) %20) #8
  call void @_ZN5vcpkg7CommandD2Ev(ptr noundef nonnull align 8 dereferenceable(32) %10) #8
  ret void

90:                                               ; preds = %84
  %91 = landingpad { ptr, i32 }
          cleanup
  %92 = extractvalue { ptr, i32 } %91, 0
  store ptr %92, ptr %14, align 8
  %93 = extractvalue { ptr, i32 } %91, 1
  store i32 %93, ptr %15, align 4
  call void @_ZN5vcpkg9ExpectedTINS_17ExitCodeAndOutputENS_15LocalizedStringEED2Ev(ptr noundef nonnull align 8 dereferenceable(41) %20) #8
  br label %94

94:                                               ; preds = %90, %79
  call void @_ZN5vcpkg7CommandD2Ev(ptr noundef nonnull align 8 dereferenceable(32) %10) #8
  br label %95

95:                                               ; preds = %94, %75
  %96 = load ptr, ptr %14, align 8
  %97 = load i32, ptr %15, align 4
  %98 = insertvalue { ptr, i32 } poison, ptr %96, 0
  %99 = insertvalue { ptr, i32 } %98, i32 %97, 1
  resume { ptr, i32 } %99
}