; Function Attrs: mustprogress uwtable
define internal void @_ZNK12_GLOBAL__N_114AwsStorageTool11upload_fileEN5vcpkg10StringViewERKNS1_4PathE(ptr dead_on_unwind noalias writable sret(%"struct.vcpkg::ExpectedT.154") align 8 %0, ptr noundef nonnull align 8 dereferenceable(41) %1, ptr %2, i64 %3, ptr noundef nonnull align 8 dereferenceable(32) %4) unnamed_addr #0 align 2 personality ptr @__gxx_personality_v0 {
  %6 = alloca %"struct.vcpkg::Command", align 8
  %7 = alloca %"struct.vcpkg::Command", align 8
  %8 = alloca %"struct.vcpkg::ExpectedT.450", align 8
  %9 = getelementptr inbounds i8, ptr %1, i64 8
  %10 = tail call { ptr, i64 } @_ZNK5vcpkg4PathcvNS_10StringViewEEv(ptr noundef nonnull align 8 dereferenceable(32) %9) #24
  %11 = extractvalue { ptr, i64 } %10, 0
  %12 = extractvalue { ptr, i64 } %10, 1
  call void @_ZNSt7__cxx1112basic_stringIcSt11char_traitsIcESaIcEEC1Ev(ptr noundef nonnull align 8 dereferenceable(32) %7) #24
  %13 = invoke noundef nonnull align 8 dereferenceable(32) ptr @_ZNR5vcpkg7Command10string_argENS_10StringViewE(ptr noundef nonnull align 8 dereferenceable(32) %7, ptr %11, i64 %12)
          to label %_ZN5vcpkg7CommandC2ENS_10StringViewE.exit unwind label %14

common.resume:                                    ; preds = %30, %40, %28, %14
  %.sink = phi ptr [ %7, %28 ], [ %7, %14 ], [ %6, %40 ], [ %6, %30 ]
  %common.resume.op = phi { ptr, i32 } [ %29, %28 ], [ %15, %14 ], [ %41, %40 ], [ %31, %30 ]
  call void @_ZNSt7__cxx1112basic_stringIcSt11char_traitsIcESaIcEED1Ev(ptr noundef nonnull align 8 dereferenceable(32) %.sink) #24
  resume { ptr, i32 } %common.resume.op

14:                                               ; preds = %5
  %15 = landingpad { ptr, i32 }
          cleanup
  br label %common.resume

_ZN5vcpkg7CommandC2ENS_10StringViewE.exit:        ; preds = %5
  %16 = invoke noundef nonnull align 8 dereferenceable(32) ptr @_ZNR5vcpkg7Command10string_argENS_10StringViewE(ptr noundef nonnull align 8 dereferenceable(32) %7, ptr nonnull @.str.107, i64 2)
          to label %_ZNO5vcpkg7Command10string_argENS_10StringViewE.exit unwind label %28

_ZNO5vcpkg7Command10string_argENS_10StringViewE.exit: ; preds = %_ZN5vcpkg7CommandC2ENS_10StringViewE.exit
  %17 = invoke noundef nonnull align 8 dereferenceable(32) ptr @_ZNR5vcpkg7Command10string_argENS_10StringViewE(ptr noundef nonnull align 8 dereferenceable(32) %16, ptr nonnull @.str.105, i64 2)
          to label %_ZNO5vcpkg7Command10string_argENS_10StringViewE.exit15 unwind label %28

_ZNO5vcpkg7Command10string_argENS_10StringViewE.exit15: ; preds = %_ZNO5vcpkg7Command10string_argENS_10StringViewE.exit
  %18 = call { ptr, i64 } @_ZNK5vcpkg4PathcvNS_10StringViewEEv(ptr noundef nonnull align 8 dereferenceable(32) %4) #24
  %19 = extractvalue { ptr, i64 } %18, 0
  %20 = extractvalue { ptr, i64 } %18, 1
  %21 = invoke noundef nonnull align 8 dereferenceable(32) ptr @_ZNR5vcpkg7Command10string_argENS_10StringViewE(ptr noundef nonnull align 8 dereferenceable(32) %17, ptr %19, i64 %20)
          to label %_ZNO5vcpkg7Command10string_argENS_10StringViewE.exit16 unwind label %28

_ZNO5vcpkg7Command10string_argENS_10StringViewE.exit16: ; preds = %_ZNO5vcpkg7Command10string_argENS_10StringViewE.exit15
  %22 = invoke noundef nonnull align 8 dereferenceable(32) ptr @_ZNR5vcpkg7Command10string_argENS_10StringViewE(ptr noundef nonnull align 8 dereferenceable(32) %21, ptr %2, i64 %3)
          to label %_ZNO5vcpkg7Command10string_argENS_10StringViewE.exit17 unwind label %28

_ZNO5vcpkg7Command10string_argENS_10StringViewE.exit17: ; preds = %_ZNO5vcpkg7Command10string_argENS_10StringViewE.exit16
  call void @_ZNSt7__cxx1112basic_stringIcSt11char_traitsIcESaIcEEC1EOS4_(ptr noundef nonnull align 8 dereferenceable(32) %6, ptr noundef nonnull align 8 dereferenceable(32) %22) #24
  call void @_ZNSt7__cxx1112basic_stringIcSt11char_traitsIcESaIcEED1Ev(ptr noundef nonnull align 8 dereferenceable(32) %7) #24
  %23 = getelementptr inbounds i8, ptr %1, i64 40
  %24 = load i8, ptr %23, align 8
  %25 = and i8 %24, 1
  %.not = icmp eq i8 %25, 0
  br i1 %.not, label %32, label %26

26:                                               ; preds = %_ZNO5vcpkg7Command10string_argENS_10StringViewE.exit17
  %27 = invoke noundef nonnull align 8 dereferenceable(32) ptr @_ZNR5vcpkg7Command10string_argENS_10StringViewE(ptr noundef nonnull align 8 dereferenceable(32) %6, ptr nonnull @.str.109, i64 17)
          to label %32 unwind label %30

28:                                               ; preds = %_ZNO5vcpkg7Command10string_argENS_10StringViewE.exit16, %_ZNO5vcpkg7Command10string_argENS_10StringViewE.exit15, %_ZNO5vcpkg7Command10string_argENS_10StringViewE.exit, %_ZN5vcpkg7CommandC2ENS_10StringViewE.exit
  %29 = landingpad { ptr, i32 }
          cleanup
  br label %common.resume

30:                                               ; preds = %32, %26
  %31 = landingpad { ptr, i32 }
          cleanup
  br label %common.resume

32:                                               ; preds = %26, %_ZNO5vcpkg7Command10string_argENS_10StringViewE.exit17
  invoke void @_ZN5vcpkg30cmd_execute_and_capture_outputERKNS_7CommandE(ptr dead_on_unwind nonnull writable sret(%"struct.vcpkg::ExpectedT.450") align 8 %8, ptr noundef nonnull align 8 dereferenceable(32) %6)
          to label %33 unwind label %30

33:                                               ; preds = %32
  invoke void @_ZN5vcpkg7flattenERKNS_9ExpectedTINS_17ExitCodeAndOutputENS_15LocalizedStringEEENS_10StringViewE(ptr dead_on_unwind writable sret(%"struct.vcpkg::ExpectedT.154") align 8 %0, ptr noundef nonnull align 8 dereferenceable(41) %8, ptr nonnull @.str.65, i64 3)
          to label %34 unwind label %40

34:                                               ; preds = %33
  %35 = getelementptr inbounds i8, ptr %8, i64 40
  %36 = load i8, ptr %35, align 8
  %37 = shl i8 %36, 3
  %38 = and i8 %37, 8
  %39 = xor i8 %38, 8
  %.sink.idx.i = zext nneg i8 %39 to i64
  %.sink.i = getelementptr inbounds i8, ptr %8, i64 %.sink.idx.i
  call void @_ZNSt7__cxx1112basic_stringIcSt11char_traitsIcESaIcEED1Ev(ptr noundef nonnull align 8 dereferenceable(32) %.sink.i) #24
  call void @_ZNSt7__cxx1112basic_stringIcSt11char_traitsIcESaIcEED1Ev(ptr noundef nonnull align 8 dereferenceable(32) %6) #24
  ret void

40:                                               ; preds = %33
  %41 = landingpad { ptr, i32 }
          cleanup
  %42 = getelementptr inbounds i8, ptr %8, i64 40
  %43 = load i8, ptr %42, align 8
  %44 = shl i8 %43, 3
  %45 = and i8 %44, 8
  %46 = xor i8 %45, 8
  %.sink.idx.i18 = zext nneg i8 %46 to i64
  %.sink.i19 = getelementptr inbounds i8, ptr %8, i64 %.sink.idx.i18
  call void @_ZNSt7__cxx1112basic_stringIcSt11char_traitsIcESaIcEED1Ev(ptr noundef nonnull align 8 dereferenceable(32) %.sink.i19) #24
  br label %common.resume
}